target datalayout = "e-m:e-p270:32:32-p271:32:32-p272:64:64-i64:64-i128:128-f80:128-n8:16:32:64-S128"
target triple = "x86_64-pc-linux-gnu"

%struct.Aig_Man_t_ = type { ptr, ptr, ptr, ptr, ptr, ptr, ptr, %struct.Aig_Obj_t_, i32, i32, i32, i32, i32, i32, [7 x i32], i32, ptr, i32, ptr, i32, ptr, i32, i32, i32, ptr, i32, i32, i32, i32, i32, ptr, ptr, i32, ptr, ptr, i32, ptr, ptr, i32, i32, i32, ptr, ptr, ptr, ptr, ptr, ptr, ptr, ptr, ptr, ptr, ptr, ptr, ptr, ptr, i32, ptr, ptr, ptr, ptr, i32, i64, i64, i64, ptr, ptr }
%struct.Aig_Obj_t_ = type { %union.anon.0, ptr, ptr, i64, i32, i32, %union.anon.1 }
%union.anon.0 = type { ptr }
%union.anon.1 = type { ptr }
%struct.Vec_Ptr_t_ = type { i32, i32, ptr }

; Function Attrs: nounwind uwtable
define internal i32 @Aig_IsComplement(ptr noundef %0) #0 {
  %2 = alloca ptr, align 8
  store ptr %0, ptr %2, align 8
  %3 = load ptr, ptr %2, align 8
  %4 = ptrtoint ptr %3 to i64
  %5 = and i64 %4, 1
  %6 = trunc i64 %5 to i32
  ret i32 %6
}

; Function Attrs: nounwind uwtable
define internal ptr @Aig_Regular(ptr noundef %0) #0 {
  %2 = alloca ptr, align 8
  store ptr %0, ptr %2, align 8
  %3 = load ptr, ptr %2, align 8
  %4 = ptrtoint ptr %3 to i64
  %5 = and i64 %4, -2
  %6 = inttoptr i64 %5 to ptr
  ret ptr %6
}

; Function Attrs: nounwind uwtable
define internal i32 @Aig_ObjFaninC0(ptr noundef %0) #0 {
  %2 = alloca ptr, align 8
  store ptr %0, ptr %2, align 8
  %3 = load ptr, ptr %2, align 8
  %4 = getelementptr inbounds %struct.Aig_Obj_t_, ptr %3, i32 0, i32 1
  %5 = load ptr, ptr %4, align 8
  %6 = call i32 @Aig_IsComplement(ptr noundef %5)
  ret i32 %6
}

; Function Attrs: nounwind uwtable
define internal ptr @Aig_ObjFanin0(ptr noundef %0) #0 {
  %2 = alloca ptr, align 8
  store ptr %0, ptr %2, align 8
  %3 = load ptr, ptr %2, align 8
  %4 = getelementptr inbounds %struct.Aig_Obj_t_, ptr %3, i32 0, i32 1
  %5 = load ptr, ptr %4, align 8
  %6 = call ptr @Aig_Regular(ptr noundef %5)
  ret ptr %6
}

; Function Attrs: nounwind uwtable
define internal ptr @Aig_ManCo(ptr noundef %0, i32 noundef %1) #0 {
  %3 = alloca ptr, align 8
  %4 = alloca i32, align 4
  store ptr %0, ptr %3, align 8
  store i32 %1, ptr %4, align 4
  %5 = load ptr, ptr %3, align 8
  %6 = getelementptr inbounds %struct.Aig_Man_t_, ptr %5, i32 0, i32 3
  %7 = load ptr, ptr %6, align 8
  %8 = load i32, ptr %4, align 4
  %9 = call ptr @Vec_PtrEntry(ptr noundef %7, i32 noundef %8)
  ret ptr %9
}

; Function Attrs: nounwind uwtable
define internal ptr @Vec_PtrEntry(ptr noundef %0, i32 noundef %1) #0 {
  %3 = alloca ptr, align 8
  %4 = alloca i32, align 4
  store ptr %0, ptr %3, align 8
  store i32 %1, ptr %4, align 4
  %5 = load ptr, ptr %3, align 8
  %6 = getelementptr inbounds %struct.Vec_Ptr_t_, ptr %5, i32 0, i32 2
  %7 = load ptr, ptr %6, align 8
  %8 = load i32, ptr %4, align 4
  %9 = sext i32 %8 to i64
  %10 = getelementptr inbounds ptr, ptr %7, i64 %9
  %11 = load ptr, ptr %10, align 8
  ret ptr %11
}

; Function Attrs: nounwind uwtable
define internal i32 @Vec_PtrSize(ptr noundef %0) #0 {
  %2 = alloca ptr, align 8
  store ptr %0, ptr %2, align 8
  %3 = load ptr, ptr %2, align 8
  %4 = getelementptr inbounds %struct.Vec_Ptr_t_, ptr %3, i32 0, i32 1
  %5 = load i32, ptr %4, align 4
  ret i32 %5
}

; Function Attrs: nounwind uwtable
define internal ptr @Aig_ManConst1(ptr noundef %0) #0 {
  %2 = alloca ptr, align 8
  store ptr %0, ptr %2, align 8
  %3 = load ptr, ptr %2, align 8
  %4 = getelementptr inbounds %struct.Aig_Man_t_, ptr %3, i32 0, i32 6
  %5 = load ptr, ptr %4, align 8
  ret ptr %5
}

; Function Attrs: nounwind uwtable
define internal i32 @Aig_ManCiNum(ptr noundef %0) #0 {
  %2 = alloca ptr, align 8
  store ptr %0, ptr %2, align 8
  %3 = load ptr, ptr %2, align 8
  %4 = getelementptr inbounds %struct.Aig_Man_t_, ptr %3, i32 0, i32 14
  %5 = getelementptr inbounds [7 x i32], ptr %4, i64 0, i64 2
  %6 = load i32, ptr %5, align 8
  ret i32 %6
}

; Function Attrs: nounwind uwtable
define ptr @Aig_ManBuildPoBdd(ptr noundef %0, ptr noundef %1) #0 {
  %3 = alloca ptr, align 8
  %4 = alloca ptr, align 8
  %5 = alloca ptr, align 8
  %6 = alloca ptr, align 8
  %7 = alloca i32, align 4
  store ptr %0, ptr %3, align 8
  store ptr %1, ptr %4, align 8
  %8 = load ptr, ptr %3, align 8
  call void @Aig_ManCleanData(ptr noundef %8)
  %9 = load ptr, ptr %3, align 8
  %10 = call i32 @Aig_ManCiNum(ptr noundef %9)
  %11 = call ptr @Cudd_Init(i32 noundef %10, i32 noundef 0, i32 noundef 256, i32 noundef 262144, i64 noundef 0)
  store ptr %11, ptr %5, align 8
  %12 = load ptr, ptr %5, align 8
  call void @Cudd_AutodynEnable(ptr noundef %12, i32 noundef 6)
  %13 = load ptr, ptr %3, align 8
  %14 = call ptr @Aig_ManConst1(ptr noundef %13)
  store ptr %14, ptr %6, align 8
  %15 = load ptr, ptr %5, align 8
  %16 = call ptr @Cudd_ReadOne(ptr noundef %15)
  %17 = load ptr, ptr %6, align 8
  %18 = getelementptr inbounds %struct.Aig_Obj_t_, ptr %17, i32 0, i32 6
  store ptr %16, ptr %18, align 8
  %19 = load ptr, ptr %6, align 8
  %20 = getelementptr inbounds %struct.Aig_Obj_t_, ptr %19, i32 0, i32 6
  %21 = load ptr, ptr %20, align 8
  call void @Cudd_Ref(ptr noundef %21)
  store i32 0, ptr %7, align 4
  br label %22

22:                                               ; preds = %46, %2
  %23 = load i32, ptr %7, align 4
  %24 = load ptr, ptr %3, align 8
  %25 = getelementptr inbounds %struct.Aig_Man_t_, ptr %24, i32 0, i32 2
  %26 = load ptr, ptr %25, align 8
  %27 = call i32 @Vec_PtrSize(ptr noundef %26)
  %28 = icmp slt i32 %23, %27
  br i1 %28, label %29, label %35

29:                                               ; preds = %22
  %30 = load ptr, ptr %3, align 8
  %31 = getelementptr inbounds %struct.Aig_Man_t_, ptr %30, i32 0, i32 2
  %32 = load ptr, ptr %31, align 8
  %33 = load i32, ptr %7, align 4
  %34 = call ptr @Vec_PtrEntry(ptr noundef %32, i32 noundef %33)
  store ptr %34, ptr %6, align 8
  br label %35

35:                                               ; preds = %29, %22
  %36 = phi i1 [ false, %22 ], [ true, %29 ]
  br i1 %36, label %37, label %49

37:                                               ; preds = %35
  %38 = load ptr, ptr %5, align 8
  %39 = load i32, ptr %7, align 4
  %40 = call ptr @Cudd_bddIthVar(ptr noundef %38, i32 noundef %39)
  %41 = load ptr, ptr %6, align 8
  %42 = getelementptr inbounds %struct.Aig_Obj_t_, ptr %41, i32 0, i32 6
  store ptr %40, ptr %42, align 8
  %43 = load ptr, ptr %6, align 8
  %44 = getelementptr inbounds %struct.Aig_Obj_t_, ptr %43, i32 0, i32 6
  %45 = load ptr, ptr %44, align 8
  call void @Cudd_Ref(ptr noundef %45)
  br label %46

46:                                               ; preds = %37
  %47 = load i32, ptr %7, align 4
  %48 = add nsw i32 %47, 1
  store i32 %48, ptr %7, align 4
  br label %22, !llvm.loop !10

49:                                               ; preds = %35
  %50 = load ptr, ptr %3, align 8
  %51 = call ptr @Aig_ManCo(ptr noundef %50, i32 noundef 0)
  store ptr %51, ptr %6, align 8
  %52 = load ptr, ptr %3, align 8
  %53 = load ptr, ptr %6, align 8
  %54 = call ptr @Aig_ObjFanin0(ptr noundef %53)
  %55 = load ptr, ptr %5, align 8
  %56 = call ptr @Aig_ManBuildPoBdd_rec(ptr noundef %52, ptr noundef %54, ptr noundef %55)
  %57 = load ptr, ptr %4, align 8
  store ptr %56, ptr %57, align 8
  %58 = load ptr, ptr %4, align 8
  %59 = load ptr, ptr %58, align 8
  call void @Cudd_Ref(ptr noundef %59)
  %60 = load ptr, ptr %4, align 8
  %61 = load ptr, ptr %60, align 8
  %62 = ptrtoint ptr %61 to i64
  %63 = load ptr, ptr %6, align 8
  %64 = call i32 @Aig_ObjFaninC0(ptr noundef %63)
  %65 = sext i32 %64 to i64
  %66 = xor i64 %62, %65
  %67 = inttoptr i64 %66 to ptr
  %68 = load ptr, ptr %4, align 8
  store ptr %67, ptr %68, align 8
  store i32 0, ptr %7, align 4
  br label %69

69:                                               ; preds = %100, %49
  %70 = load i32, ptr %7, align 4
  %71 = load ptr, ptr %3, align 8
  %72 = getelementptr inbounds %struct.Aig_Man_t_, ptr %71, i32 0, i32 4
  %73 = load ptr, ptr %72, align 8
  %74 = call i32 @Vec_PtrSize(ptr noundef %73)
  %75 = icmp slt i32 %70, %74
  br i1 %75, label %76, label %82

76:                                               ; preds = %69
  %77 = load ptr, ptr %3, align 8
  %78 = getelementptr inbounds %struct.Aig_Man_t_, ptr %77, i32 0, i32 4
  %79 = load ptr, ptr %78, align 8
  %80 = load i32, ptr %7, align 4
  %81 = call ptr @Vec_PtrEntry(ptr noundef %79, i32 noundef %80)
  store ptr %81, ptr %6, align 8
  br label %82

82:                                               ; preds = %76, %69
  %83 = phi i1 [ false, %69 ], [ true, %76 ]
  br i1 %83, label %84, label %103

84:                                               ; preds = %82
  %85 = load ptr, ptr %6, align 8
  %86 = icmp eq ptr %85, null
  br i1 %86, label %87, label %88

87:                                               ; preds = %84
  br label %99

88:                                               ; preds = %84
  %89 = load ptr, ptr %6, align 8
  %90 = getelementptr inbounds %struct.Aig_Obj_t_, ptr %89, i32 0, i32 6
  %91 = load ptr, ptr %90, align 8
  %92 = icmp ne ptr %91, null
  br i1 %92, label %93, label %98

93:                                               ; preds = %88
  %94 = load ptr, ptr %5, align 8
  %95 = load ptr, ptr %6, align 8
  %96 = getelementptr inbounds %struct.Aig_Obj_t_, ptr %95, i32 0, i32 6
  %97 = load ptr, ptr %96, align 8
  call void @Cudd_RecursiveDeref(ptr noundef %94, ptr noundef %97)
  br label %98

98:                                               ; preds = %93, %88
  br label %99

99:                                               ; preds = %98, %87
  br label %100

100:                                              ; preds = %99
  %101 = load i32, ptr %7, align 4
  %102 = add nsw i32 %101, 1
  store i32 %102, ptr %7, align 4
  br label %69, !llvm.loop !11

103:                                              ; preds = %82
  %104 = load ptr, ptr %5, align 8
  %105 = call i32 @Cudd_ReduceHeap(ptr noundef %104, i32 noundef 6, i32 noundef 1)
  %106 = load ptr, ptr %5, align 8
  ret ptr %106
}