; Function Attrs: nounwind uwtable
define noundef ptr @Aig_ManBuildPoBdd(ptr noundef %0, ptr noundef captures(none) %1) local_unnamed_addr #0 {
  tail call void @Aig_ManCleanData(ptr noundef %0) #14
  %3 = getelementptr i8, ptr %0, i64 136
  %.val45 = load i32, ptr %3, align 8
  %4 = tail call ptr @Cudd_Init(i32 noundef %.val45, i32 noundef 0, i32 noundef 256, i32 noundef 262144, i64 noundef 0) #14
  tail call void @Cudd_AutodynEnable(ptr noundef %4, i32 noundef 6) #14
  %5 = getelementptr i8, ptr %0, i64 48
  %.val40 = load ptr, ptr %5, align 8
  %6 = tail call ptr @Cudd_ReadOne(ptr noundef %4) #14
  %7 = getelementptr inbounds nuw i8, ptr %.val40, i64 40
  store ptr %6, ptr %7, align 8
  tail call void @Cudd_Ref(ptr noundef %6) #14
  %8 = getelementptr inbounds nuw i8, ptr %0, i64 16
  %9 = load ptr, ptr %8, align 8
  %10 = getelementptr i8, ptr %9, i64 4
  %.val3947 = load i32, ptr %10, align 4
  %11 = icmp sgt i32 %.val3947, 0
  br i1 %11, label %.lr.ph, label %.critedge

.lr.ph:                                           ; preds = %2, %.lr.ph
  %indvars.iv = phi i64 [ %indvars.iv.next, %.lr.ph ], [ 0, %2 ]
  %12 = phi ptr [ %19, %.lr.ph ], [ %9, %2 ]
  %13 = getelementptr i8, ptr %12, i64 8
  %.val42 = load ptr, ptr %13, align 8
  %14 = getelementptr inbounds nuw ptr, ptr %.val42, i64 %indvars.iv
  %15 = load ptr, ptr %14, align 8
  %16 = trunc nuw nsw i64 %indvars.iv to i32
  %17 = tail call ptr @Cudd_bddIthVar(ptr noundef %4, i32 noundef %16) #14
  %18 = getelementptr inbounds nuw i8, ptr %15, i64 40
  store ptr %17, ptr %18, align 8
  tail call void @Cudd_Ref(ptr noundef %17) #14
  %indvars.iv.next = add nuw nsw i64 %indvars.iv, 1
  %19 = load ptr, ptr %8, align 8
  %20 = getelementptr i8, ptr %19, i64 4
  %.val39 = load i32, ptr %20, align 4
  %21 = sext i32 %.val39 to i64
  %22 = icmp slt i64 %indvars.iv.next, %21
  br i1 %22, label %.lr.ph, label %.critedge, !llvm.loop !10

.critedge:                                        ; preds = %.lr.ph, %2
  %23 = getelementptr i8, ptr %0, i64 24
  %.val46 = load ptr, ptr %23, align 8
  %24 = getelementptr i8, ptr %.val46, i64 8
  %.val46.val = load ptr, ptr %24, align 8
  %.val46.val.val = load ptr, ptr %.val46.val, align 8
  %25 = getelementptr i8, ptr %.val46.val.val, i64 8
  %.val43 = load ptr, ptr %25, align 8
  %26 = ptrtoint ptr %.val43 to i64
  %27 = and i64 %26, -2
  %28 = inttoptr i64 %27 to ptr
  %29 = tail call ptr @Aig_ManBuildPoBdd_rec(ptr noundef nonnull %0, ptr noundef %28, ptr noundef %4)
  store ptr %29, ptr %1, align 8
  tail call void @Cudd_Ref(ptr noundef %29) #14
  %30 = load ptr, ptr %1, align 8
  %31 = ptrtoint ptr %30 to i64
  %.val44 = load ptr, ptr %25, align 8
  %32 = ptrtoint ptr %.val44 to i64
  %33 = and i64 %32, 1
  %34 = xor i64 %33, %31
  %35 = inttoptr i64 %34 to ptr
  store ptr %35, ptr %1, align 8
  %36 = getelementptr inbounds nuw i8, ptr %0, i64 32
  %37 = load ptr, ptr %36, align 8
  %38 = getelementptr i8, ptr %37, i64 4
  %.val49 = load i32, ptr %38, align 4
  %39 = icmp sgt i32 %.val49, 0
  br i1 %39, label %.lr.ph51, label %.critedge2

.lr.ph51:                                         ; preds = %.critedge, %49
  %40 = phi ptr [ %50, %49 ], [ %37, %.critedge ]
  %indvars.iv53 = phi i64 [ %indvars.iv.next54, %49 ], [ 0, %.critedge ]
  %41 = getelementptr i8, ptr %40, i64 8
  %.val41 = load ptr, ptr %41, align 8
  %42 = getelementptr inbounds nuw ptr, ptr %.val41, i64 %indvars.iv53
  %43 = load ptr, ptr %42, align 8
  %44 = icmp eq ptr %43, null
  br i1 %44, label %49, label %45

45:                                               ; preds = %.lr.ph51
  %46 = getelementptr inbounds nuw i8, ptr %43, i64 40
  %47 = load ptr, ptr %46, align 8
  %.not = icmp eq ptr %47, null
  br i1 %.not, label %49, label %48

48:                                               ; preds = %45
  tail call void @Cudd_RecursiveDeref(ptr noundef %4, ptr noundef nonnull %47) #14
  %.pre = load ptr, ptr %36, align 8
  br label %49

49:                                               ; preds = %.lr.ph51, %48, %45
  %50 = phi ptr [ %40, %.lr.ph51 ], [ %.pre, %48 ], [ %40, %45 ]
  %indvars.iv.next54 = add nuw nsw i64 %indvars.iv53, 1
  %51 = getelementptr i8, ptr %50, i64 4
  %.val = load i32, ptr %51, align 4
  %52 = sext i32 %.val to i64
  %53 = icmp slt i64 %indvars.iv.next54, %52
  br i1 %53, label %.lr.ph51, label %.critedge2, !llvm.loop !11

.critedge2:                                       ; preds = %49, %.critedge
  %54 = tail call i32 @Cudd_ReduceHeap(ptr noundef %4, i32 noundef 6, i32 noundef 1) #14
  ret ptr %4
}